target datalayout = "e-m:e-p270:32:32-p271:32:32-p272:64:64-i64:64-i128:128-f80:128-n8:16:32:64-S128"
target triple = "x86_64-pc-linux-gnu"

%struct.SDL_Renderer = type { ptr, ptr, ptr, ptr, ptr, ptr, ptr, ptr, ptr, ptr, ptr, ptr, ptr, ptr, ptr, ptr, ptr, ptr, ptr, ptr, ptr, ptr, ptr, ptr, ptr, ptr, ptr, ptr, ptr, ptr, i32, i8, ptr, i8, i8, i8, i64, i64, ptr, %struct.SDL_RenderViewState, %struct.SDL_FPoint, i32, i32, ptr, ptr, ptr, i32, float, float, float, float, %struct.SDL_FColor, i32, i32, i32, ptr, ptr, ptr, ptr, i32, %struct.SDL_FColor, float, %struct.SDL_Rect, %struct.SDL_Rect, i8, i8, i8, i8, ptr, i64, i64, i8, ptr, ptr, i32, ptr, i8, ptr, ptr }
%struct.SDL_RenderViewState = type { i32, i32, %struct.SDL_Rect, %struct.SDL_Rect, %struct.SDL_Rect, %struct.SDL_Rect, i8, %struct.SDL_FPoint, i32, i32, i32, %struct.SDL_FRect, %struct.SDL_FRect, %struct.SDL_FPoint, %struct.SDL_FPoint, %struct.SDL_FPoint }
%struct.SDL_FRect = type { float, float, float, float }
%struct.SDL_FPoint = type { float, float }
%struct.SDL_FColor = type { float, float, float, float }
%struct.SDL_Rect = type { i32, i32, i32, i32 }
%struct.GPU_RenderData = type { ptr, %struct.GPU_Shaders, %struct.GPU_PipelineCache, %struct.anon, %struct.anon.0, %struct.anon.1, %struct.anon.2, [8 x ptr] }
%struct.GPU_Shaders = type { [3 x ptr], [6 x ptr] }
%struct.GPU_PipelineCache = type { ptr }
%struct.anon = type { ptr, i32, i32, i32 }
%struct.anon.0 = type { i32, i32 }
%struct.anon.1 = type { ptr, ptr, i32 }
%struct.anon.2 = type { ptr, ptr, ptr, %struct.SDL_GPUColorTargetInfo, %struct.SDL_GPUViewport, %struct.SDL_Rect, %struct.SDL_FColor, i8, i8 }
%struct.SDL_GPUColorTargetInfo = type { ptr, i32, i32, %struct.SDL_FColor, i32, i32, ptr, i32, i32, i8, i8, i8, i8 }
%struct.SDL_GPUViewport = type { float, float, float, float, float, float }
%struct.SDL_GPUTextureCreateInfo = type { i32, i32, i32, i32, i32, i32, i32, i32, i32 }
%struct.SDL_Texture = type { i32, i32, i32, i32, i32, float, float, i32, i32, i32, %struct.SDL_FColor, %struct.SDL_RenderViewState, ptr, ptr, ptr, ptr, i32, %struct.SDL_Rect, ptr, i32, i32, ptr, ptr, ptr }
%struct.GPU_TextureData = type { ptr, i32, i32, ptr, i32, %struct.SDL_Rect }

@.str.9 = private unnamed_addr constant [43 x i8] c"Texture format %s not supported by SDL_GPU\00", align 1

; Function Attrs: nounwind uwtable
define internal i32 @PixFormatToTexFormat(i32 noundef %0) #0 {
  %2 = alloca i32, align 4
  %3 = alloca i32, align 4
  store i32 %0, ptr %3, align 4
  %4 = load i32, ptr %3, align 4
  switch i32 %4, label %8 [
    i32 372645892, label %5
    i32 370546692, label %5
    i32 376840196, label %6
    i32 374740996, label %6
    i32 842094169, label %7
    i32 1448433993, label %7
    i32 842094158, label %7
    i32 825382478, label %7
    i32 1498831189, label %7
  ]

5:                                                ; preds = %1, %1
  store i32 12, ptr %2, align 4
  br label %9

6:                                                ; preds = %1, %1
  store i32 4, ptr %2, align 4
  br label %9

7:                                                ; preds = %1, %1, %1, %1, %1
  br label %8

8:                                                ; preds = %1, %7
  store i32 0, ptr %2, align 4
  br label %9

9:                                                ; preds = %8, %6, %5
  %10 = load i32, ptr %2, align 4
  ret i32 %10
}

; Function Attrs: nounwind uwtable
define internal zeroext i1 @GPU_CreateTexture(ptr noundef %0, ptr noundef %1, i32 noundef %2) #0 {
  %4 = alloca i1, align 1
  %5 = alloca ptr, align 8
  %6 = alloca ptr, align 8
  %7 = alloca i32, align 4
  %8 = alloca ptr, align 8
  %9 = alloca ptr, align 8
  %10 = alloca i32, align 4
  %11 = alloca i32, align 4
  %12 = alloca i32, align 4
  %13 = alloca i64, align 8
  %14 = alloca %struct.SDL_GPUTextureCreateInfo, align 4
  store ptr %0, ptr %5, align 8
  store ptr %1, ptr %6, align 8
  store i32 %2, ptr %7, align 4
  call void @llvm.lifetime.start.p0(i64 8, ptr %8) #10
  %15 = load ptr, ptr %5, align 8
  %16 = getelementptr inbounds nuw %struct.SDL_Renderer, ptr %15, i32 0, i32 77
  %17 = load ptr, ptr %16, align 8
  store ptr %17, ptr %8, align 8
  call void @llvm.lifetime.start.p0(i64 8, ptr %9) #10
  call void @llvm.lifetime.start.p0(i64 4, ptr %10) #10
  call void @llvm.lifetime.start.p0(i64 4, ptr %11) #10
  store i32 1, ptr %11, align 4
  %18 = load ptr, ptr %6, align 8
  %19 = getelementptr inbounds nuw %struct.SDL_Texture, ptr %18, i32 0, i32 0
  %20 = load i32, ptr %19, align 8
  %21 = call i32 @PixFormatToTexFormat(i32 noundef %20)
  store i32 %21, ptr %10, align 4
  %22 = load i32, ptr %10, align 4
  %23 = icmp eq i32 %22, 0
  br i1 %23, label %24, label %30

24:                                               ; preds = %3
  %25 = load ptr, ptr %6, align 8
  %26 = getelementptr inbounds nuw %struct.SDL_Texture, ptr %25, i32 0, i32 0
  %27 = load i32, ptr %26, align 8
  %28 = call ptr @SDL_GetPixelFormatName_REAL(i32 noundef %27)
  %29 = call zeroext i1 (ptr, ...) @SDL_SetError_REAL(ptr noundef @.str.9, ptr noundef %28)
  store i1 %29, ptr %4, align 1
  store i32 1, ptr %12, align 4
  br label %223

30:                                               ; preds = %3
  %31 = call noalias ptr @SDL_calloc_REAL(i64 noundef 1, i64 noundef 48) #11
  store ptr %31, ptr %9, align 8
  %32 = load ptr, ptr %9, align 8
  %33 = icmp ne ptr %32, null
  br i1 %33, label %35, label %34

34:                                               ; preds = %30
  store i1 false, ptr %4, align 1
  store i32 1, ptr %12, align 4
  br label %223

35:                                               ; preds = %30
  %36 = load ptr, ptr %6, align 8
  %37 = getelementptr inbounds nuw %struct.SDL_Texture, ptr %36, i32 0, i32 7
  %38 = load i32, ptr %37, align 4
  %39 = icmp eq i32 %38, 1
  br i1 %39, label %40, label %164

40:                                               ; preds = %35
  call void @llvm.lifetime.start.p0(i64 8, ptr %13) #10
  %41 = load ptr, ptr %6, align 8
  %42 = getelementptr inbounds nuw %struct.SDL_Texture, ptr %41, i32 0, i32 1
  %43 = load i32, ptr %42, align 4
  %44 = load ptr, ptr %6, align 8
  %45 = getelementptr inbounds nuw %struct.SDL_Texture, ptr %44, i32 0, i32 0
  %46 = load i32, ptr %45, align 8
  %47 = icmp ne i32 %46, 0
  br i1 %47, label %48, label %78

48:                                               ; preds = %40
  %49 = load ptr, ptr %6, align 8
  %50 = getelementptr inbounds nuw %struct.SDL_Texture, ptr %49, i32 0, i32 0
  %51 = load i32, ptr %50, align 8
  %52 = lshr i32 %51, 28
  %53 = and i32 %52, 15
  %54 = icmp ne i32 %53, 1
  br i1 %54, label %55, label %78

55:                                               ; preds = %48
  %56 = load ptr, ptr %6, align 8
  %57 = getelementptr inbounds nuw %struct.SDL_Texture, ptr %56, i32 0, i32 0
  %58 = load i32, ptr %57, align 8
  %59 = icmp eq i32 %58, 844715353
  br i1 %59, label %75, label %60

60:                                               ; preds = %55
  %61 = load ptr, ptr %6, align 8
  %62 = getelementptr inbounds nuw %struct.SDL_Texture, ptr %61, i32 0, i32 0
  %63 = load i32, ptr %62, align 8
  %64 = icmp eq i32 %63, 1498831189
  br i1 %64, label %75, label %65

65:                                               ; preds = %60
  %66 = load ptr, ptr %6, align 8
  %67 = getelementptr inbounds nuw %struct.SDL_Texture, ptr %66, i32 0, i32 0
  %68 = load i32, ptr %67, align 8
  %69 = icmp eq i32 %68, 1431918169
  br i1 %69, label %75, label %70

70:                                               ; preds = %65
  %71 = load ptr, ptr %6, align 8
  %72 = getelementptr inbounds nuw %struct.SDL_Texture, ptr %71, i32 0, i32 0
  %73 = load i32, ptr %72, align 8
  %74 = icmp eq i32 %73, 808530000
  br label %75

75:                                               ; preds = %70, %65, %60, %55
  %76 = phi i1 [ true, %65 ], [ true, %60 ], [ true, %55 ], [ %74, %70 ]
  %77 = select i1 %76, i32 2, i32 1
  br label %84

78:                                               ; preds = %48, %40
  %79 = load ptr, ptr %6, align 8
  %80 = getelementptr inbounds nuw %struct.SDL_Texture, ptr %79, i32 0, i32 0
  %81 = load i32, ptr %80, align 8
  %82 = lshr i32 %81, 0
  %83 = and i32 %82, 255
  br label %84

84:                                               ; preds = %78, %75
  %85 = phi i32 [ %77, %75 ], [ %83, %78 ]
  %86 = mul i32 %43, %85
  %87 = load ptr, ptr %9, align 8
  %88 = getelementptr inbounds nuw %struct.GPU_TextureData, ptr %87, i32 0, i32 4
  store i32 %86, ptr %88, align 8
  %89 = load ptr, ptr %6, align 8
  %90 = getelementptr inbounds nuw %struct.SDL_Texture, ptr %89, i32 0, i32 2
  %91 = load i32, ptr %90, align 8
  %92 = sext i32 %91 to i64
  %93 = load ptr, ptr %9, align 8
  %94 = getelementptr inbounds nuw %struct.GPU_TextureData, ptr %93, i32 0, i32 4
  %95 = load i32, ptr %94, align 8
  %96 = sext i32 %95 to i64
  %97 = mul i64 %92, %96
  store i64 %97, ptr %13, align 8
  %98 = load ptr, ptr %6, align 8
  %99 = getelementptr inbounds nuw %struct.SDL_Texture, ptr %98, i32 0, i32 0
  %100 = load i32, ptr %99, align 8
  %101 = icmp eq i32 %100, 842094169
  br i1 %101, label %107, label %102

102:                                              ; preds = %84
  %103 = load ptr, ptr %6, align 8
  %104 = getelementptr inbounds nuw %struct.SDL_Texture, ptr %103, i32 0, i32 0
  %105 = load i32, ptr %104, align 8
  %106 = icmp eq i32 %105, 1448433993
  br i1 %106, label %107, label %123

107:                                              ; preds = %102, %84
  %108 = load ptr, ptr %6, align 8
  %109 = getelementptr inbounds nuw %struct.SDL_Texture, ptr %108, i32 0, i32 2
  %110 = load i32, ptr %109, align 8
  %111 = add nsw i32 %110, 1
  %112 = sdiv i32 %111, 2
  %113 = mul nsw i32 2, %112
  %114 = load ptr, ptr %9, align 8
  %115 = getelementptr inbounds nuw %struct.GPU_TextureData, ptr %114, i32 0, i32 4
  %116 = load i32, ptr %115, align 8
  %117 = add nsw i32 %116, 1
  %118 = sdiv i32 %117, 2
  %119 = mul nsw i32 %113, %118
  %120 = sext i32 %119 to i64
  %121 = load i64, ptr %13, align 8
  %122 = add i64 %121, %120
  store i64 %122, ptr %13, align 8
  br label %123

123:                                              ; preds = %107, %102
  %124 = load ptr, ptr %6, align 8
  %125 = getelementptr inbounds nuw %struct.SDL_Texture, ptr %124, i32 0, i32 0
  %126 = load i32, ptr %125, align 8
  %127 = icmp eq i32 %126, 842094158
  br i1 %127, label %133, label %128

128:                                              ; preds = %123
  %129 = load ptr, ptr %6, align 8
  %130 = getelementptr inbounds nuw %struct.SDL_Texture, ptr %129, i32 0, i32 0
  %131 = load i32, ptr %130, align 8
  %132 = icmp eq i32 %131, 825382478
  br i1 %132, label %133, label %149

133:                                              ; preds = %128, %123
  %134 = load ptr, ptr %6, align 8
  %135 = getelementptr inbounds nuw %struct.SDL_Texture, ptr %134, i32 0, i32 2
  %136 = load i32, ptr %135, align 8
  %137 = add nsw i32 %136, 1
  %138 = sdiv i32 %137, 2
  %139 = mul nsw i32 2, %138
  %140 = load ptr, ptr %9, align 8
  %141 = getelementptr inbounds nuw %struct.GPU_TextureData, ptr %140, i32 0, i32 4
  %142 = load i32, ptr %141, align 8
  %143 = add nsw i32 %142, 1
  %144 = sdiv i32 %143, 2
  %145 = mul nsw i32 %139, %144
  %146 = sext i32 %145 to i64
  %147 = load i64, ptr %13, align 8
  %148 = add i64 %147, %146
  store i64 %148, ptr %13, align 8
  br label %149

149:                                              ; preds = %133, %128
  %150 = load i64, ptr %13, align 8
  %151 = call noalias ptr @SDL_calloc_REAL(i64 noundef 1, i64 noundef %150) #11
  %152 = load ptr, ptr %9, align 8
  %153 = getelementptr inbounds nuw %struct.GPU_TextureData, ptr %152, i32 0, i32 3
  store ptr %151, ptr %153, align 8
  %154 = load ptr, ptr %9, align 8
  %155 = getelementptr inbounds nuw %struct.GPU_TextureData, ptr %154, i32 0, i32 3
  %156 = load ptr, ptr %155, align 8
  %157 = icmp ne ptr %156, null
  br i1 %157, label %160, label %158

158:                                              ; preds = %149
  %159 = load ptr, ptr %9, align 8
  call void @SDL_free_REAL(ptr noundef %159)
  store i1 false, ptr %4, align 1
  store i32 1, ptr %12, align 4
  br label %161

160:                                              ; preds = %149
  store i32 0, ptr %12, align 4
  br label %161

161:                                              ; preds = %160, %158
  call void @llvm.lifetime.end.p0(i64 8, ptr %13) #10
  %162 = load i32, ptr %12, align 4
  switch i32 %162, label %223 [
    i32 0, label %163
  ]

163:                                              ; preds = %161
  br label %164

164:                                              ; preds = %163, %35
  %165 = load ptr, ptr %6, align 8
  %166 = getelementptr inbounds nuw %struct.SDL_Texture, ptr %165, i32 0, i32 7
  %167 = load i32, ptr %166, align 4
  %168 = icmp eq i32 %167, 2
  br i1 %168, label %169, label %172

169:                                              ; preds = %164
  %170 = load i32, ptr %11, align 4
  %171 = or i32 %170, 2
  store i32 %171, ptr %11, align 4
  br label %172

172:                                              ; preds = %169, %164
  %173 = load ptr, ptr %9, align 8
  %174 = load ptr, ptr %6, align 8
  %175 = getelementptr inbounds nuw %struct.SDL_Texture, ptr %174, i32 0, i32 21
  store ptr %173, ptr %175, align 8
  call void @llvm.lifetime.start.p0(i64 36, ptr %14) #10
  call void @llvm.memset.p0.i64(ptr align 4 %14, i8 0, i64 36, i1 false)
  %176 = load i32, ptr %10, align 4
  %177 = getelementptr inbounds nuw %struct.SDL_GPUTextureCreateInfo, ptr %14, i32 0, i32 1
  store i32 %176, ptr %177, align 4
  %178 = getelementptr inbounds nuw %struct.SDL_GPUTextureCreateInfo, ptr %14, i32 0, i32 5
  store i32 1, ptr %178, align 4
  %179 = getelementptr inbounds nuw %struct.SDL_GPUTextureCreateInfo, ptr %14, i32 0, i32 6
  store i32 1, ptr %179, align 4
  %180 = load i32, ptr %11, align 4
  %181 = getelementptr inbounds nuw %struct.SDL_GPUTextureCreateInfo, ptr %14, i32 0, i32 2
  store i32 %180, ptr %181, align 4
  %182 = load ptr, ptr %6, align 8
  %183 = getelementptr inbounds nuw %struct.SDL_Texture, ptr %182, i32 0, i32 1
  %184 = load i32, ptr %183, align 4
  %185 = getelementptr inbounds nuw %struct.SDL_GPUTextureCreateInfo, ptr %14, i32 0, i32 3
  store i32 %184, ptr %185, align 4
  %186 = load ptr, ptr %6, align 8
  %187 = getelementptr inbounds nuw %struct.SDL_Texture, ptr %186, i32 0, i32 2
  %188 = load i32, ptr %187, align 8
  %189 = getelementptr inbounds nuw %struct.SDL_GPUTextureCreateInfo, ptr %14, i32 0, i32 4
  store i32 %188, ptr %189, align 4
  %190 = getelementptr inbounds nuw %struct.SDL_GPUTextureCreateInfo, ptr %14, i32 0, i32 7
  store i32 0, ptr %190, align 4
  %191 = load i32, ptr %10, align 4
  %192 = load ptr, ptr %9, align 8
  %193 = getelementptr inbounds nuw %struct.GPU_TextureData, ptr %192, i32 0, i32 1
  store i32 %191, ptr %193, align 8
  %194 = load ptr, ptr %8, align 8
  %195 = getelementptr inbounds nuw %struct.GPU_RenderData, ptr %194, i32 0, i32 0
  %196 = load ptr, ptr %195, align 8
  %197 = call ptr @SDL_CreateGPUTexture_REAL(ptr noundef %196, ptr noundef %14)
  %198 = load ptr, ptr %9, align 8
  %199 = getelementptr inbounds nuw %struct.GPU_TextureData, ptr %198, i32 0, i32 0
  store ptr %197, ptr %199, align 8
  %200 = load ptr, ptr %9, align 8
  %201 = getelementptr inbounds nuw %struct.GPU_TextureData, ptr %200, i32 0, i32 0
  %202 = load ptr, ptr %201, align 8
  %203 = icmp ne ptr %202, null
  br i1 %203, label %205, label %204

204:                                              ; preds = %172
  store i1 false, ptr %4, align 1
  store i32 1, ptr %12, align 4
  br label %222

205:                                              ; preds = %172
  %206 = load ptr, ptr %6, align 8
  %207 = getelementptr inbounds nuw %struct.SDL_Texture, ptr %206, i32 0, i32 0
  %208 = load i32, ptr %207, align 8
  %209 = icmp eq i32 %208, 376840196
  br i1 %209, label %215, label %210

210:                                              ; preds = %205
  %211 = load ptr, ptr %6, align 8
  %212 = getelementptr inbounds nuw %struct.SDL_Texture, ptr %211, i32 0, i32 0
  %213 = load i32, ptr %212, align 8
  %214 = icmp eq i32 %213, 372645892
  br i1 %214, label %215, label %218

215:                                              ; preds = %210, %205
  %216 = load ptr, ptr %9, align 8
  %217 = getelementptr inbounds nuw %struct.GPU_TextureData, ptr %216, i32 0, i32 2
  store i32 2, ptr %217, align 4
  br label %221

218:                                              ; preds = %210
  %219 = load ptr, ptr %9, align 8
  %220 = getelementptr inbounds nuw %struct.GPU_TextureData, ptr %219, i32 0, i32 2
  store i32 1, ptr %220, align 4
  br label %221

221:                                              ; preds = %218, %215
  store i1 true, ptr %4, align 1
  store i32 1, ptr %12, align 4
  br label %222

222:                                              ; preds = %221, %204
  call void @llvm.lifetime.end.p0(i64 36, ptr %14) #10
  br label %223

223:                                              ; preds = %222, %161, %34, %24
  call void @llvm.lifetime.end.p0(i64 4, ptr %11) #10
  call void @llvm.lifetime.end.p0(i64 4, ptr %10) #10
  call void @llvm.lifetime.end.p0(i64 8, ptr %9) #10
  call void @llvm.lifetime.end.p0(i64 8, ptr %8) #10
  %224 = load i1, ptr %4, align 1
  ret i1 %224
}