; Function Attrs: nounwind uwtable
define internal zeroext i1 @GPU_CreateTexture(ptr noundef readonly captures(none) %0, ptr noundef captures(none) %1, i32 %2) #0 {
  %4 = alloca %struct.SDL_GPUTextureCreateInfo, align 4
  %5 = getelementptr inbounds nuw i8, ptr %0, i64 696
  %6 = load ptr, ptr %5, align 8
  %7 = load i32, ptr %1, align 8
  switch i32 %7, label %PixFormatToTexFormat.exit [
    i32 372645892, label %11
    i32 370546692, label %11
    i32 376840196, label %8
    i32 374740996, label %8
  ]

8:                                                ; preds = %3, %3
  br label %11

PixFormatToTexFormat.exit:                        ; preds = %3
  %9 = tail call ptr @SDL_GetPixelFormatName_REAL(i32 noundef %7) #11
  %10 = tail call zeroext i1 (ptr, ...) @SDL_SetError_REAL(ptr noundef nonnull @.str.9, ptr noundef %9) #11
  br label %80

11:                                               ; preds = %8, %3, %3
  %.0.i.ph = phi i32 [ 12, %3 ], [ 12, %3 ], [ 4, %8 ]
  %12 = tail call noalias dereferenceable_or_null(48) ptr @SDL_calloc_REAL(i64 noundef 1, i64 noundef 48) #12
  %.not = icmp eq ptr %12, null
  br i1 %.not, label %80, label %13

13:                                               ; preds = %11
  %14 = getelementptr inbounds nuw i8, ptr %1, i64 28
  %15 = load i32, ptr %14, align 4
  %16 = icmp eq i32 %15, 1
  br i1 %16, label %17, label %.critedge

17:                                               ; preds = %13
  %18 = getelementptr inbounds nuw i8, ptr %1, i64 4
  %19 = load i32, ptr %18, align 4
  %20 = load i32, ptr %1, align 8
  %.not59 = icmp eq i32 %20, 0
  %.mask = and i32 %20, -268435456
  %.not60 = icmp eq i32 %.mask, 268435456
  %or.cond = or i1 %.not59, %.not60
  br i1 %or.cond, label %25, label %21

21:                                               ; preds = %17
  switch i32 %20, label %22 [
    i32 844715353, label %27
    i32 1498831189, label %27
    i32 1431918169, label %27
  ]

22:                                               ; preds = %21
  %23 = icmp eq i32 %20, 808530000
  %24 = select i1 %23, i32 2, i32 1
  br label %27

25:                                               ; preds = %17
  %26 = and i32 %20, 255
  br label %27

27:                                               ; preds = %22, %21, %21, %21, %25
  %28 = phi i32 [ %26, %25 ], [ 2, %21 ], [ %24, %22 ], [ 2, %21 ], [ 2, %21 ]
  %29 = mul i32 %28, %19
  %30 = getelementptr inbounds nuw i8, ptr %12, i64 24
  store i32 %29, ptr %30, align 8
  %31 = getelementptr inbounds nuw i8, ptr %1, i64 8
  %32 = load i32, ptr %31, align 8
  %33 = sext i32 %32 to i64
  %34 = sext i32 %29 to i64
  %35 = mul nsw i64 %33, %34
  switch i32 %20, label %45 [
    i32 842094169, label %36
    i32 1448433993, label %36
  ]

36:                                               ; preds = %27, %27
  %37 = add nsw i32 %32, 1
  %38 = sdiv i32 %37, 2
  %39 = add nsw i32 %29, 1
  %40 = sdiv i32 %39, 2
  %41 = shl nsw i32 %40, 1
  %42 = mul i32 %41, %38
  %43 = sext i32 %42 to i64
  %44 = add nsw i64 %35, %43
  br label %45

45:                                               ; preds = %27, %36
  %.0 = phi i64 [ %44, %36 ], [ %35, %27 ]
  switch i32 %20, label %55 [
    i32 842094158, label %46
    i32 825382478, label %46
  ]

46:                                               ; preds = %45, %45
  %47 = add nsw i32 %32, 1
  %48 = sdiv i32 %47, 2
  %49 = add nsw i32 %29, 1
  %50 = sdiv i32 %49, 2
  %51 = shl nsw i32 %50, 1
  %52 = mul i32 %51, %48
  %53 = sext i32 %52 to i64
  %54 = add nsw i64 %.0, %53
  br label %55

55:                                               ; preds = %45, %46
  %.1 = phi i64 [ %54, %46 ], [ %.0, %45 ]
  %56 = tail call noalias ptr @SDL_calloc_REAL(i64 noundef 1, i64 noundef %.1) #12
  %57 = getelementptr inbounds nuw i8, ptr %12, i64 16
  store ptr %56, ptr %57, align 8
  %.not61.not = icmp eq ptr %56, null
  br i1 %.not61.not, label %58, label %..critedge_crit_edge

..critedge_crit_edge:                             ; preds = %55
  %.pre = load i32, ptr %14, align 4
  br label %.critedge

58:                                               ; preds = %55
  tail call void @SDL_free_REAL(ptr noundef nonnull %12) #11
  br label %80

.critedge:                                        ; preds = %..critedge_crit_edge, %13
  %59 = phi i32 [ %.pre, %..critedge_crit_edge ], [ %15, %13 ]
  %60 = icmp eq i32 %59, 2
  %spec.select = select i1 %60, i32 3, i32 1
  %61 = getelementptr inbounds nuw i8, ptr %1, i64 280
  store ptr %12, ptr %61, align 8
  call void @llvm.lifetime.start.p0(i64 36, ptr nonnull %4) #11
  call void @llvm.memset.p0.i64(ptr noundef nonnull align 4 dereferenceable(36) %4, i8 0, i64 36, i1 false)
  %62 = getelementptr inbounds nuw i8, ptr %4, i64 4
  store i32 %.0.i.ph, ptr %62, align 4
  %63 = getelementptr inbounds nuw i8, ptr %4, i64 20
  store i32 1, ptr %63, align 4
  %64 = getelementptr inbounds nuw i8, ptr %4, i64 24
  store i32 1, ptr %64, align 4
  %65 = getelementptr inbounds nuw i8, ptr %4, i64 8
  store i32 %spec.select, ptr %65, align 4
  %66 = getelementptr inbounds nuw i8, ptr %1, i64 4
  %67 = load i32, ptr %66, align 4
  %68 = getelementptr inbounds nuw i8, ptr %4, i64 12
  store i32 %67, ptr %68, align 4
  %69 = getelementptr inbounds nuw i8, ptr %1, i64 8
  %70 = load i32, ptr %69, align 8
  %71 = getelementptr inbounds nuw i8, ptr %4, i64 16
  store i32 %70, ptr %71, align 4
  %72 = getelementptr inbounds nuw i8, ptr %12, i64 8
  store i32 %.0.i.ph, ptr %72, align 8
  %73 = load ptr, ptr %6, align 8
  %74 = call ptr @SDL_CreateGPUTexture_REAL(ptr noundef %73, ptr noundef nonnull %4) #11
  store ptr %74, ptr %12, align 8
  %.not62 = icmp ne ptr %74, null
  br i1 %.not62, label %.sink.split, label %79

.sink.split:                                      ; preds = %.critedge
  %75 = load i32, ptr %1, align 8
  %76 = add i32 %75, -372645892
  %switch.and = and i32 %76, -4194305
  %switch.selectcmp = icmp eq i32 %switch.and, 0
  %77 = select i1 %switch.selectcmp, i32 2, i32 1
  %78 = getelementptr inbounds nuw i8, ptr %12, i64 12
  store i32 %77, ptr %78, align 4
  br label %79

79:                                               ; preds = %.sink.split, %.critedge
  call void @llvm.lifetime.end.p0(i64 36, ptr nonnull %4) #11
  br label %80

80:                                               ; preds = %58, %11, %79, %PixFormatToTexFormat.exit
  %.051 = phi i1 [ %10, %PixFormatToTexFormat.exit ], [ %.not62, %79 ], [ false, %58 ], [ false, %11 ]
  ret i1 %.051
}